; Function Attrs: mustprogress uwtable
define noundef i64 @_ZNK8facebook5velox9RowVector16estimateFlatSizeEv(ptr nocapture noundef nonnull readonly align 8 dereferenceable(138) %this) unnamed_addr #0 align 2 {
entry:
  %nulls_.i = getelementptr inbounds i8, ptr %this, i64 32
  %0 = load ptr, ptr %nulls_.i, align 8
  %cmp.i.not.i = icmp eq ptr %0, null
  br i1 %cmp.i.not.i, label %_ZNK8facebook5velox10BaseVector12retainedSizeEv.exit, label %cond.true.i

cond.true.i:                                      ; preds = %entry
  %capacity_.i.i = getelementptr inbounds i8, ptr %0, i64 32
  %1 = load i64, ptr %capacity_.i.i, align 8
  br label %_ZNK8facebook5velox10BaseVector12retainedSizeEv.exit

_ZNK8facebook5velox10BaseVector12retainedSizeEv.exit: ; preds = %entry, %cond.true.i
  %cond.i = phi i64 [ %1, %cond.true.i ], [ 0, %entry ]
  %children_ = getelementptr inbounds i8, ptr %this, i64 112
  %2 = load ptr, ptr %children_, align 8
  %_M_finish.i = getelementptr inbounds i8, ptr %this, i64 120
  %3 = load ptr, ptr %_M_finish.i, align 8
  %cmp.i.not7 = icmp eq ptr %2, %3
  br i1 %cmp.i.not7, label %for.end, label %for.body

for.body:                                         ; preds = %_ZNK8facebook5velox10BaseVector12retainedSizeEv.exit, %for.inc
  %total.09 = phi i64 [ %total.1, %for.inc ], [ %cond.i, %_ZNK8facebook5velox10BaseVector12retainedSizeEv.exit ]
  %__begin2.sroa.0.08 = phi ptr [ %incdec.ptr.i, %for.inc ], [ %2, %_ZNK8facebook5velox10BaseVector12retainedSizeEv.exit ]
  %4 = load ptr, ptr %__begin2.sroa.0.08, align 8
  %cmp.i4.not = icmp eq ptr %4, null
  br i1 %cmp.i4.not, label %for.inc, label %if.then

if.then:                                          ; preds = %for.body
  %vtable = load ptr, ptr %4, align 8
  %vfn = getelementptr inbounds i8, ptr %vtable, i64 304
  %5 = load ptr, ptr %vfn, align 8
  %call9 = tail call noundef i64 %5(ptr noundef nonnull align 8 dereferenceable(99) %4)
  %add = add i64 %call9, %total.09
  br label %for.inc

for.inc:                                          ; preds = %for.body, %if.then
  %total.1 = phi i64 [ %add, %if.then ], [ %total.09, %for.body ]
  %incdec.ptr.i = getelementptr inbounds i8, ptr %__begin2.sroa.0.08, i64 16
  %cmp.i.not = icmp eq ptr %incdec.ptr.i, %3
  br i1 %cmp.i.not, label %for.end, label %for.body

for.end:                                          ; preds = %for.inc, %_ZNK8facebook5velox10BaseVector12retainedSizeEv.exit
  %total.0.lcssa = phi i64 [ %cond.i, %_ZNK8facebook5velox10BaseVector12retainedSizeEv.exit ], [ %total.1, %for.inc ]
  ret i64 %total.0.lcssa
}